; Function Attrs: mustprogress uwtable
define internal noundef ptr @"_ZNSt17_Function_handlerIFP4exprS1_EZN2bv6solver19internalize_circuitEP3appE4$_40E9_M_invokeERKSt9_Any_dataOS1_"(ptr noundef nonnull readonly align 8 captures(none) dereferenceable(16) %0, ptr noundef nonnull readonly align 8 captures(none) dereferenceable(8) %1) #3 align 2 {
  %.val = load ptr, ptr %0, align 8, !tbaa !571
  %.val2 = load ptr, ptr %1, align 8, !tbaa !104
  %3 = getelementptr i8, ptr %.val, i64 128
  %.val.val = load i32, ptr %3, align 4, !tbaa !110
  %4 = getelementptr i8, ptr %.val, i64 136
  %.val.val3 = load ptr, ptr %4, align 8, !tbaa !122
  %5 = tail call noundef ptr @_ZN11ast_manager6mk_appEiiP4expr(ptr noundef nonnull align 8 dereferenceable(976) %.val.val3, i32 noundef %.val.val, i32 noundef 15, ptr noundef %.val2)
  ret ptr %5
}